target datalayout = "e-m:e-p270:32:32-p271:32:32-p272:64:64-i64:64-i128:128-f80:128-n8:16:32:64-S128"
target triple = "x86_64-pc-linux-gnu"

%struct.unit_conversion = type { [4 x i8], i32, double }

; Function Attrs: nounwind uwtable
define internal zeroext i1 @convert_to_base_unit(double noundef %0, ptr noundef %1, i32 noundef %2, ptr noundef %3) #0 {
  %5 = alloca i1, align 1
  %6 = alloca double, align 8
  %7 = alloca ptr, align 8
  %8 = alloca i32, align 4
  %9 = alloca ptr, align 8
  %10 = alloca [4 x i8], align 1
  %11 = alloca i32, align 4
  %12 = alloca ptr, align 8
  %13 = alloca i32, align 4
  %14 = alloca i32, align 4
  %15 = alloca double, align 8
  store double %0, ptr %6, align 8
  store ptr %1, ptr %7, align 8
  store i32 %2, ptr %8, align 4
  store ptr %3, ptr %9, align 8
  call void @llvm.lifetime.start.p0(i64 4, ptr %10) #16
  call void @llvm.lifetime.start.p0(i64 4, ptr %11) #16
  call void @llvm.lifetime.start.p0(i64 8, ptr %12) #16
  call void @llvm.lifetime.start.p0(i64 4, ptr %13) #16
  store i32 0, ptr %11, align 4
  br label %16

16:                                               ; preds = %38, %4
  %17 = load ptr, ptr %7, align 8
  %18 = load i8, ptr %17, align 1
  %19 = sext i8 %18 to i32
  %20 = icmp ne i32 %19, 0
  br i1 %20, label %21, label %36

21:                                               ; preds = %16
  %22 = call ptr @__ctype_b_loc() #19
  %23 = load ptr, ptr %22, align 8
  %24 = load ptr, ptr %7, align 8
  %25 = load i8, ptr %24, align 1
  %26 = zext i8 %25 to i32
  %27 = sext i32 %26 to i64
  %28 = getelementptr inbounds i16, ptr %23, i64 %27
  %29 = load i16, ptr %28, align 2
  %30 = zext i16 %29 to i32
  %31 = and i32 %30, 8192
  %32 = icmp ne i32 %31, 0
  br i1 %32, label %36, label %33

33:                                               ; preds = %21
  %34 = load i32, ptr %11, align 4
  %35 = icmp slt i32 %34, 3
  br label %36

36:                                               ; preds = %33, %21, %16
  %37 = phi i1 [ false, %21 ], [ false, %16 ], [ %35, %33 ]
  br i1 %37, label %38, label %46

38:                                               ; preds = %36
  %39 = load ptr, ptr %7, align 8
  %40 = getelementptr inbounds nuw i8, ptr %39, i32 1
  store ptr %40, ptr %7, align 8
  %41 = load i8, ptr %39, align 1
  %42 = load i32, ptr %11, align 4
  %43 = add i32 %42, 1
  store i32 %43, ptr %11, align 4
  %44 = sext i32 %42 to i64
  %45 = getelementptr inbounds [4 x i8], ptr %10, i64 0, i64 %44
  store i8 %41, ptr %45, align 1
  br label %16, !llvm.loop !39

46:                                               ; preds = %36
  %47 = load i32, ptr %11, align 4
  %48 = sext i32 %47 to i64
  %49 = getelementptr inbounds [4 x i8], ptr %10, i64 0, i64 %48
  store i8 0, ptr %49, align 1
  br label %50

50:                                               ; preds = %62, %46
  %51 = call ptr @__ctype_b_loc() #19
  %52 = load ptr, ptr %51, align 8
  %53 = load ptr, ptr %7, align 8
  %54 = load i8, ptr %53, align 1
  %55 = zext i8 %54 to i32
  %56 = sext i32 %55 to i64
  %57 = getelementptr inbounds i16, ptr %52, i64 %56
  %58 = load i16, ptr %57, align 2
  %59 = zext i16 %58 to i32
  %60 = and i32 %59, 8192
  %61 = icmp ne i32 %60, 0
  br i1 %61, label %62, label %65

62:                                               ; preds = %50
  %63 = load ptr, ptr %7, align 8
  %64 = getelementptr inbounds nuw i8, ptr %63, i32 1
  store ptr %64, ptr %7, align 8
  br label %50, !llvm.loop !40

65:                                               ; preds = %50
  %66 = load ptr, ptr %7, align 8
  %67 = load i8, ptr %66, align 1
  %68 = sext i8 %67 to i32
  %69 = icmp ne i32 %68, 0
  br i1 %69, label %70, label %71

70:                                               ; preds = %65
  store i1 false, ptr %5, align 1
  store i32 1, ptr %14, align 4
  br label %162

71:                                               ; preds = %65
  %72 = load i32, ptr %8, align 4
  %73 = and i32 %72, 251658240
  %74 = icmp ne i32 %73, 0
  br i1 %74, label %75, label %76

75:                                               ; preds = %71
  store ptr @memory_unit_conversion_table, ptr %12, align 8
  br label %77

76:                                               ; preds = %71
  store ptr @time_unit_conversion_table, ptr %12, align 8
  br label %77

77:                                               ; preds = %76, %75
  store i32 0, ptr %13, align 4
  br label %78

78:                                               ; preds = %158, %77
  %79 = load ptr, ptr %12, align 8
  %80 = load i32, ptr %13, align 4
  %81 = sext i32 %80 to i64
  %82 = getelementptr inbounds %struct.unit_conversion, ptr %79, i64 %81
  %83 = getelementptr inbounds nuw %struct.unit_conversion, ptr %82, i32 0, i32 0
  %84 = getelementptr inbounds [4 x i8], ptr %83, i64 0, i64 0
  %85 = load i8, ptr %84, align 8
  %86 = icmp ne i8 %85, 0
  br i1 %86, label %87, label %161

87:                                               ; preds = %78
  %88 = load i32, ptr %8, align 4
  %89 = load ptr, ptr %12, align 8
  %90 = load i32, ptr %13, align 4
  %91 = sext i32 %90 to i64
  %92 = getelementptr inbounds %struct.unit_conversion, ptr %89, i64 %91
  %93 = getelementptr inbounds nuw %struct.unit_conversion, ptr %92, i32 0, i32 1
  %94 = load i32, ptr %93, align 4
  %95 = icmp eq i32 %88, %94
  br i1 %95, label %96, label %157

96:                                               ; preds = %87
  %97 = getelementptr inbounds [4 x i8], ptr %10, i64 0, i64 0
  %98 = load ptr, ptr %12, align 8
  %99 = load i32, ptr %13, align 4
  %100 = sext i32 %99 to i64
  %101 = getelementptr inbounds %struct.unit_conversion, ptr %98, i64 %100
  %102 = getelementptr inbounds nuw %struct.unit_conversion, ptr %101, i32 0, i32 0
  %103 = getelementptr inbounds [4 x i8], ptr %102, i64 0, i64 0
  %104 = call i32 @strcmp(ptr noundef %97, ptr noundef %103) #17
  %105 = icmp eq i32 %104, 0
  br i1 %105, label %106, label %157

106:                                              ; preds = %96
  call void @llvm.lifetime.start.p0(i64 8, ptr %15) #16
  %107 = load double, ptr %6, align 8
  %108 = load ptr, ptr %12, align 8
  %109 = load i32, ptr %13, align 4
  %110 = sext i32 %109 to i64
  %111 = getelementptr inbounds %struct.unit_conversion, ptr %108, i64 %110
  %112 = getelementptr inbounds nuw %struct.unit_conversion, ptr %111, i32 0, i32 2
  %113 = load double, ptr %112, align 8
  %114 = fmul double %107, %113
  store double %114, ptr %15, align 8
  %115 = load ptr, ptr %12, align 8
  %116 = load i32, ptr %13, align 4
  %117 = add i32 %116, 1
  %118 = sext i32 %117 to i64
  %119 = getelementptr inbounds %struct.unit_conversion, ptr %115, i64 %118
  %120 = getelementptr inbounds nuw %struct.unit_conversion, ptr %119, i32 0, i32 0
  %121 = getelementptr inbounds [4 x i8], ptr %120, i64 0, i64 0
  %122 = load i8, ptr %121, align 8
  %123 = sext i8 %122 to i32
  %124 = icmp ne i32 %123, 0
  br i1 %124, label %125, label %154

125:                                              ; preds = %106
  %126 = load i32, ptr %8, align 4
  %127 = load ptr, ptr %12, align 8
  %128 = load i32, ptr %13, align 4
  %129 = add i32 %128, 1
  %130 = sext i32 %129 to i64
  %131 = getelementptr inbounds %struct.unit_conversion, ptr %127, i64 %130
  %132 = getelementptr inbounds nuw %struct.unit_conversion, ptr %131, i32 0, i32 1
  %133 = load i32, ptr %132, align 4
  %134 = icmp eq i32 %126, %133
  br i1 %134, label %135, label %154

135:                                              ; preds = %125
  %136 = load double, ptr %15, align 8
  %137 = load ptr, ptr %12, align 8
  %138 = load i32, ptr %13, align 4
  %139 = add i32 %138, 1
  %140 = sext i32 %139 to i64
  %141 = getelementptr inbounds %struct.unit_conversion, ptr %137, i64 %140
  %142 = getelementptr inbounds nuw %struct.unit_conversion, ptr %141, i32 0, i32 2
  %143 = load double, ptr %142, align 8
  %144 = fdiv double %136, %143
  %145 = call double @llvm.rint.f64(double %144)
  %146 = load ptr, ptr %12, align 8
  %147 = load i32, ptr %13, align 4
  %148 = add i32 %147, 1
  %149 = sext i32 %148 to i64
  %150 = getelementptr inbounds %struct.unit_conversion, ptr %146, i64 %149
  %151 = getelementptr inbounds nuw %struct.unit_conversion, ptr %150, i32 0, i32 2
  %152 = load double, ptr %151, align 8
  %153 = fmul double %145, %152
  store double %153, ptr %15, align 8
  br label %154

154:                                              ; preds = %135, %125, %106
  %155 = load double, ptr %15, align 8
  %156 = load ptr, ptr %9, align 8
  store double %155, ptr %156, align 8
  store i1 true, ptr %5, align 1
  store i32 1, ptr %14, align 4
  call void @llvm.lifetime.end.p0(i64 8, ptr %15) #16
  br label %162

157:                                              ; preds = %96, %87
  br label %158

158:                                              ; preds = %157
  %159 = load i32, ptr %13, align 4
  %160 = add i32 %159, 1
  store i32 %160, ptr %13, align 4
  br label %78, !llvm.loop !41

161:                                              ; preds = %78
  store i1 false, ptr %5, align 1
  store i32 1, ptr %14, align 4
  br label %162

162:                                              ; preds = %161, %154, %70
  call void @llvm.lifetime.end.p0(i64 4, ptr %13) #16
  call void @llvm.lifetime.end.p0(i64 8, ptr %12) #16
  call void @llvm.lifetime.end.p0(i64 4, ptr %11) #16
  call void @llvm.lifetime.end.p0(i64 4, ptr %10) #16
  %163 = load i1, ptr %5, align 1
  ret i1 %163
}