; Function Attrs: nofree nounwind memory(read, argmem: readwrite, inaccessiblemem: none) uwtable
define internal fastcc noundef zeroext i1 @convert_to_base_unit(double noundef %0, ptr noundef readonly captures(none) %1, i32 noundef range(i32 1, 2130706433) %2, ptr noundef nonnull writeonly captures(none) %3) unnamed_addr #16 {
  %5 = alloca [4 x i8], align 1
  call void @llvm.lifetime.start.p0(i64 4, ptr nonnull %5) #29
  %6 = load i8, ptr %1, align 1
  %.not47 = icmp eq i8 %6, 0
  %.pre = tail call ptr @__ctype_b_loc() #32
  br i1 %.not47, label %.critedge, label %.lr.ph

.lr.ph:                                           ; preds = %4
  %7 = load ptr, ptr %.pre, align 8
  br label %8

8:                                                ; preds = %.lr.ph, %16
  %indvars.iv = phi i64 [ 0, %.lr.ph ], [ %indvars.iv.next, %16 ]
  %9 = phi i8 [ %6, %.lr.ph ], [ %20, %16 ]
  %.03649 = phi i32 [ 0, %.lr.ph ], [ %18, %16 ]
  %.03848 = phi ptr [ %1, %.lr.ph ], [ %17, %16 ]
  %10 = zext i8 %9 to i64
  %11 = getelementptr inbounds nuw i16, ptr %7, i64 %10
  %12 = load i16, ptr %11, align 2
  %13 = and i16 %12, 8192
  %14 = icmp eq i16 %13, 0
  %15 = icmp samesign ult i64 %indvars.iv, 3
  %or.cond = select i1 %14, i1 %15, i1 false
  br i1 %or.cond, label %16, label %.critedge.loopexit.split.loop.exit

16:                                               ; preds = %8
  %17 = getelementptr inbounds nuw i8, ptr %.03848, i64 1
  %indvars.iv.next = add nuw nsw i64 %indvars.iv, 1
  %18 = add nuw nsw i32 %.03649, 1
  %19 = getelementptr inbounds nuw [4 x i8], ptr %5, i64 0, i64 %indvars.iv
  store i8 %9, ptr %19, align 1
  %20 = load i8, ptr %17, align 1
  %.not = icmp eq i8 %20, 0
  br i1 %.not, label %.critedge.loopexit, label %8, !llvm.loop !40

.critedge.loopexit.split.loop.exit:               ; preds = %8
  %21 = trunc nuw nsw i64 %indvars.iv to i32
  br label %.critedge.loopexit

.critedge.loopexit:                               ; preds = %16, %.critedge.loopexit.split.loop.exit
  %.038.lcssa.ph = phi ptr [ %.03848, %.critedge.loopexit.split.loop.exit ], [ %17, %16 ]
  %.036.lcssa.ph = phi i32 [ %21, %.critedge.loopexit.split.loop.exit ], [ %18, %16 ]
  %22 = zext nneg i32 %.036.lcssa.ph to i64
  br label %.critedge

.critedge:                                        ; preds = %4, %.critedge.loopexit
  %.038.lcssa = phi ptr [ %.038.lcssa.ph, %.critedge.loopexit ], [ %1, %4 ]
  %.036.lcssa = phi i64 [ %22, %.critedge.loopexit ], [ 0, %4 ]
  %23 = getelementptr inbounds nuw [4 x i8], ptr %5, i64 0, i64 %.036.lcssa
  store i8 0, ptr %23, align 1
  %24 = load ptr, ptr %.pre, align 8
  br label %25

25:                                               ; preds = %25, %.critedge
  %.1 = phi ptr [ %.038.lcssa, %.critedge ], [ %31, %25 ]
  %26 = load i8, ptr %.1, align 1
  %27 = zext i8 %26 to i64
  %28 = getelementptr inbounds nuw i16, ptr %24, i64 %27
  %29 = load i16, ptr %28, align 2
  %30 = and i16 %29, 8192
  %.not40 = icmp eq i16 %30, 0
  %31 = getelementptr inbounds nuw i8, ptr %.1, i64 1
  br i1 %.not40, label %32, label %25, !llvm.loop !41

32:                                               ; preds = %25
  %.not41 = icmp eq i8 %26, 0
  br i1 %.not41, label %33, label %.loopexit

33:                                               ; preds = %32
  %34 = and i32 %2, 251658240
  %.not42 = icmp eq i32 %34, 0
  %time_unit_conversion_table.memory_unit_conversion_table = select i1 %.not42, ptr @time_unit_conversion_table, ptr @memory_unit_conversion_table
  %35 = load i8, ptr %time_unit_conversion_table.memory_unit_conversion_table, align 16
  %.not4354 = icmp eq i8 %35, 0
  br i1 %.not4354, label %.loopexit, label %.lr.ph56

.lr.ph56:                                         ; preds = %33, %62
  %36 = phi ptr [ %65, %62 ], [ %time_unit_conversion_table.memory_unit_conversion_table, %33 ]
  %.03455 = phi i32 [ %63, %62 ], [ 0, %33 ]
  %37 = getelementptr inbounds nuw i8, ptr %36, i64 4
  %38 = load i32, ptr %37, align 4
  %39 = icmp eq i32 %2, %38
  br i1 %39, label %40, label %62

40:                                               ; preds = %.lr.ph56
  %41 = call i32 @strcmp(ptr noundef nonnull dereferenceable(1) %5, ptr noundef nonnull dereferenceable(1) %36) #30
  %42 = icmp eq i32 %41, 0
  br i1 %42, label %43, label %62

43:                                               ; preds = %40
  %44 = getelementptr inbounds nuw i8, ptr %36, i64 8
  %45 = load double, ptr %44, align 8
  %46 = fmul double %0, %45
  %47 = add i32 %.03455, 1
  %48 = sext i32 %47 to i64
  %49 = getelementptr inbounds %struct.unit_conversion, ptr %time_unit_conversion_table.memory_unit_conversion_table, i64 %48
  %50 = load i8, ptr %49, align 16
  %.not44 = icmp eq i8 %50, 0
  br i1 %.not44, label %61, label %51

51:                                               ; preds = %43
  %52 = getelementptr inbounds nuw i8, ptr %49, i64 4
  %53 = load i32, ptr %52, align 4
  %54 = icmp eq i32 %2, %53
  br i1 %54, label %55, label %61

55:                                               ; preds = %51
  %56 = getelementptr inbounds nuw i8, ptr %49, i64 8
  %57 = load double, ptr %56, align 8
  %58 = fdiv double %46, %57
  %59 = tail call double @llvm.rint.f64(double %58)
  %60 = fmul double %57, %59
  br label %61

61:                                               ; preds = %55, %51, %43
  %.0 = phi double [ %60, %55 ], [ %46, %51 ], [ %46, %43 ]
  store double %.0, ptr %3, align 8
  br label %.loopexit

62:                                               ; preds = %.lr.ph56, %40
  %63 = add i32 %.03455, 1
  %64 = sext i32 %63 to i64
  %65 = getelementptr inbounds %struct.unit_conversion, ptr %time_unit_conversion_table.memory_unit_conversion_table, i64 %64
  %66 = load i8, ptr %65, align 16
  %.not43 = icmp eq i8 %66, 0
  br i1 %.not43, label %.loopexit, label %.lr.ph56, !llvm.loop !42

.loopexit:                                        ; preds = %62, %33, %32, %61
  %.037 = phi i1 [ true, %61 ], [ false, %32 ], [ false, %33 ], [ false, %62 ]
  call void @llvm.lifetime.end.p0(i64 4, ptr nonnull %5) #29
  ret i1 %.037
}